; ModuleID = '4/347.c'
source_filename = "4/347.c"
target datalayout = "e-m:e-p270:32:32-p271:32:32-p272:64:64-i64:64-f80:128-n8:16:32:64-S128"
target triple = "x86_64-pc-linux-gnu"

@.str = private unnamed_addr constant [6 x i8] c"%d %d\00", align 1
@.str.1 = private unnamed_addr constant [3 x i8] c"%d\00", align 1
@.str.2 = private unnamed_addr constant [4 x i8] c"%d\0A\00", align 1

; Function Attrs: noinline nounwind uwtable
define dso_local void @main() #0 {
  %1 = alloca i32, align 4
  %2 = alloca i32, align 4
  %3 = alloca [100 x [100 x i32]], align 16
  %4 = alloca i32, align 4
  %5 = alloca i32, align 4
  %6 = alloca i32, align 4
  %7 = alloca i32, align 4
  %8 = alloca i32, align 4
  store i32 0, i32* %6, align 4
  store i32 0, i32* %7, align 4
  %9 = call i32 (i8*, ...) @__isoc99_scanf(i8* getelementptr inbounds ([6 x i8], [6 x i8]* @.str, i64 0, i64 0), i32* %4, i32* %5)
  store i32 0, i32* %1, align 4
  br label %10

10:                                               ; preds = %31, %0
  %11 = load i32, i32* %1, align 4
  %12 = load i32, i32* %4, align 4
  %13 = icmp slt i32 %11, %12
  br i1 %13, label %14, label %34

14:                                               ; preds = %10
  store i32 0, i32* %2, align 4
  br label %15

15:                                               ; preds = %27, %14
  %16 = load i32, i32* %2, align 4
  %17 = load i32, i32* %5, align 4
  %18 = icmp slt i32 %16, %17
  br i1 %18, label %19, label %30

19:                                               ; preds = %15
  %20 = load i32, i32* %1, align 4
  %21 = sext i32 %20 to i64
  %22 = getelementptr inbounds [100 x [100 x i32]], [100 x [100 x i32]]* %3, i64 0, i64 %21
  %23 = load i32, i32* %2, align 4
  %24 = sext i32 %23 to i64
  %25 = getelementptr inbounds [100 x i32], [100 x i32]* %22, i64 0, i64 %24
  %26 = call i32 (i8*, ...) @__isoc99_scanf(i8* getelementptr inbounds ([3 x i8], [3 x i8]* @.str.1, i64 0, i64 0), i32* %25)
  br label %27

27:                                               ; preds = %19
  %28 = load i32, i32* %2, align 4
  %29 = add nsw i32 %28, 1
  store i32 %29, i32* %2, align 4
  br label %15

30:                                               ; preds = %15
  br label %31

31:                                               ; preds = %30
  %32 = load i32, i32* %1, align 4
  %33 = add nsw i32 %32, 1
  store i32 %33, i32* %1, align 4
  br label %10

34:                                               ; preds = %10
  %35 = load i32, i32* %4, align 4
  %36 = load i32, i32* %5, align 4
  %37 = icmp sgt i32 %35, %36
  br i1 %37, label %38, label %40

38:                                               ; preds = %34
  %39 = load i32, i32* %4, align 4
  br label %42

40:                                               ; preds = %34
  %41 = load i32, i32* %5, align 4
  br label %42

42:                                               ; preds = %40, %38
  %43 = phi i32 [ %39, %38 ], [ %41, %40 ]
  store i32 %43, i32* %8, align 4
  store i32 0, i32* %1, align 4
  store i32 0, i32* %2, align 4
  br label %44

44:                                               ; preds = %113, %42
  %45 = load i32, i32* %1, align 4
  %46 = load i32, i32* %4, align 4
  %47 = icmp slt i32 %45, %46
  br i1 %47, label %48, label %61

48:                                               ; preds = %44
  %49 = load i32, i32* %2, align 4
  %50 = load i32, i32* %5, align 4
  %51 = icmp slt i32 %49, %50
  br i1 %51, label %52, label %61

52:                                               ; preds = %48
  %53 = load i32, i32* %1, align 4
  %54 = sext i32 %53 to i64
  %55 = getelementptr inbounds [100 x [100 x i32]], [100 x [100 x i32]]* %3, i64 0, i64 %54
  %56 = load i32, i32* %2, align 4
  %57 = sext i32 %56 to i64
  %58 = getelementptr inbounds [100 x i32], [100 x i32]* %55, i64 0, i64 %57
  %59 = load i32, i32* %58, align 4
  %60 = call i32 (i8*, ...) @printf(i8* getelementptr inbounds ([4 x i8], [4 x i8]* @.str.2, i64 0, i64 0), i32 %59)
  br label %61

61:                                               ; preds = %52, %48, %44
  %62 = load i32, i32* %1, align 4
  %63 = load i32, i32* %8, align 4
  %64 = sub nsw i32 %63, 1
  %65 = icmp eq i32 %62, %64
  br i1 %65, label %66, label %72

66:                                               ; preds = %61
  %67 = load i32, i32* %2, align 4
  %68 = load i32, i32* %8, align 4
  %69 = sub nsw i32 %68, 1
  %70 = icmp eq i32 %67, %69
  br i1 %70, label %71, label %72

71:                                               ; preds = %66
  br label %117

72:                                               ; preds = %66, %61
  %73 = load i32, i32* %7, align 4
  %74 = icmp eq i32 %73, 0
  br i1 %74, label %75, label %99

75:                                               ; preds = %72
  %76 = load i32, i32* %2, align 4
  %77 = icmp eq i32 %76, 0
  br i1 %77, label %78, label %87

78:                                               ; preds = %75
  %79 = load i32, i32* %1, align 4
  %80 = load i32, i32* %8, align 4
  %81 = sub nsw i32 %80, 1
  %82 = icmp eq i32 %79, %81
  br i1 %82, label %83, label %87

83:                                               ; preds = %78
  store i32 1, i32* %7, align 4
  %84 = load i32, i32* %8, align 4
  store i32 %84, i32* %6, align 4
  %85 = load i32, i32* %8, align 4
  %86 = sub nsw i32 %85, 1
  store i32 %86, i32* %2, align 4
  br label %98

87:                                               ; preds = %78, %75
  %88 = load i32, i32* %2, align 4
  %89 = icmp eq i32 %88, 0
  br i1 %89, label %90, label %94

90:                                               ; preds = %87
  %91 = load i32, i32* %6, align 4
  %92 = add nsw i32 %91, 1
  store i32 %92, i32* %6, align 4
  %93 = load i32, i32* %6, align 4
  store i32 %93, i32* %2, align 4
  br label %97

94:                                               ; preds = %87
  %95 = load i32, i32* %2, align 4
  %96 = sub nsw i32 %95, 1
  store i32 %96, i32* %2, align 4
  br label %97

97:                                               ; preds = %94, %90
  br label %98

98:                                               ; preds = %97, %83
  br label %113

99:                                               ; preds = %72
  %100 = load i32, i32* %1, align 4
  %101 = load i32, i32* %8, align 4
  %102 = sub nsw i32 %101, 1
  %103 = icmp eq i32 %100, %102
  br i1 %103, label %104, label %109

104:                                              ; preds = %99
  %105 = load i32, i32* %6, align 4
  %106 = add nsw i32 %105, 1
  store i32 %106, i32* %6, align 4
  %107 = load i32, i32* %8, align 4
  %108 = sub nsw i32 %107, 1
  store i32 %108, i32* %2, align 4
  br label %112

109:                                              ; preds = %99
  %110 = load i32, i32* %2, align 4
  %111 = sub nsw i32 %110, 1
  store i32 %111, i32* %2, align 4
  br label %112

112:                                              ; preds = %109, %104
  br label %113

113:                                              ; preds = %112, %98
  %114 = load i32, i32* %6, align 4
  %115 = load i32, i32* %2, align 4
  %116 = sub nsw i32 %114, %115
  store i32 %116, i32* %1, align 4
  br label %44

117:                                              ; preds = %71
  ret void
}

declare dso_local i32 @__isoc99_scanf(i8*, ...) #1

declare dso_local i32 @printf(i8*, ...) #1


!llvm.module.flags = !{!0}
!llvm.ident = !{!1}

!0 = !{i32 1, !"wchar_size", i32 4}
!1 = !{!"clang version 10.0.0-4ubuntu1 "}
