; ModuleID = 'source-C-CXX/3/347.c'
source_filename = "source-C-CXX/3/347.c"
target datalayout = "e-m:e-p270:32:32-p271:32:32-p272:64:64-i64:64-f80:128-n8:16:32:64-S128"
target triple = "x86_64-pc-linux-gnu"

@.str = private unnamed_addr constant [6 x i8] c"%d %d\00", align 1
@.str.1 = private unnamed_addr constant [3 x i8] c"%d\00", align 1
@.str.2 = private unnamed_addr constant [4 x i8] c"%d\0A\00", align 1

; Function Attrs: nofree nounwind sspstrong uwtable
define dso_local void @main() local_unnamed_addr #0 {
  %1 = alloca [100 x [100 x i32]], align 16
  %2 = alloca i32, align 4
  %3 = alloca i32, align 4
  %4 = bitcast [100 x [100 x i32]]* %1 to i8*
  call void @llvm.lifetime.start.p0i8(i64 40000, i8* nonnull %4) #3
  %5 = bitcast i32* %2 to i8*
  call void @llvm.lifetime.start.p0i8(i64 4, i8* nonnull %5) #3
  %6 = bitcast i32* %3 to i8*
  call void @llvm.lifetime.start.p0i8(i64 4, i8* nonnull %6) #3
  %7 = call i32 (i8*, ...) @__isoc99_scanf(i8* getelementptr inbounds ([6 x i8], [6 x i8]* @.str, i64 0, i64 0), i32* nonnull %2, i32* nonnull %3)
  %8 = load i32, i32* %2, align 4, !tbaa !5
  %9 = icmp sgt i32 %8, 0
  %10 = load i32, i32* %3, align 4, !tbaa !5
  %11 = icmp sgt i32 %10, 0
  %12 = select i1 %9, i1 %11, i1 false
  br i1 %12, label %13, label %34

13:                                               ; preds = %0, %28
  %14 = phi i32 [ %29, %28 ], [ %8, %0 ]
  %15 = phi i32 [ %30, %28 ], [ %10, %0 ]
  %16 = phi i64 [ %31, %28 ], [ 0, %0 ]
  %17 = icmp sgt i32 %15, 0
  br i1 %17, label %18, label %28

18:                                               ; preds = %13, %18
  %19 = phi i64 [ %22, %18 ], [ 0, %13 ]
  %20 = getelementptr inbounds [100 x [100 x i32]], [100 x [100 x i32]]* %1, i64 0, i64 %16, i64 %19
  %21 = call i32 (i8*, ...) @__isoc99_scanf(i8* getelementptr inbounds ([3 x i8], [3 x i8]* @.str.1, i64 0, i64 0), i32* nonnull %20)
  %22 = add nuw nsw i64 %19, 1
  %23 = load i32, i32* %3, align 4, !tbaa !5
  %24 = sext i32 %23 to i64
  %25 = icmp slt i64 %22, %24
  br i1 %25, label %18, label %26, !llvm.loop !9

26:                                               ; preds = %18
  %27 = load i32, i32* %2, align 4, !tbaa !5
  br label %28

28:                                               ; preds = %26, %13
  %29 = phi i32 [ %27, %26 ], [ %14, %13 ]
  %30 = phi i32 [ %23, %26 ], [ %15, %13 ]
  %31 = add nuw nsw i64 %16, 1
  %32 = sext i32 %29 to i64
  %33 = icmp slt i64 %31, %32
  br i1 %33, label %13, label %34, !llvm.loop !11

34:                                               ; preds = %28, %0
  %35 = phi i32 [ %10, %0 ], [ %30, %28 ]
  %36 = phi i32 [ %8, %0 ], [ %29, %28 ]
  %37 = icmp sgt i32 %36, %35
  %38 = select i1 %37, i32 %36, i32 %35
  %39 = add nsw i32 %38, -1
  br label %40

40:                                               ; preds = %75, %34
  %41 = phi i32 [ %35, %34 ], [ %81, %75 ]
  %42 = phi i32 [ %36, %34 ], [ %80, %75 ]
  %43 = phi i32 [ 0, %34 ], [ %76, %75 ]
  %44 = phi i32 [ 0, %34 ], [ %77, %75 ]
  %45 = phi i32 [ 0, %34 ], [ %78, %75 ]
  %46 = phi i32 [ 0, %34 ], [ %79, %75 ]
  %47 = icmp slt i32 %46, %42
  %48 = icmp slt i32 %43, %41
  %49 = select i1 %47, i1 %48, i1 false
  br i1 %49, label %50, label %56

50:                                               ; preds = %40
  %51 = sext i32 %46 to i64
  %52 = sext i32 %43 to i64
  %53 = getelementptr inbounds [100 x [100 x i32]], [100 x [100 x i32]]* %1, i64 0, i64 %51, i64 %52
  %54 = load i32, i32* %53, align 4, !tbaa !5
  %55 = call i32 (i8*, ...) @printf(i8* nonnull dereferenceable(1) getelementptr inbounds ([4 x i8], [4 x i8]* @.str.2, i64 0, i64 0), i32 %54)
  br label %56

56:                                               ; preds = %50, %40
  %57 = icmp eq i32 %46, %39
  %58 = icmp eq i32 %43, %39
  %59 = select i1 %57, i1 %58, i1 false
  br i1 %59, label %82, label %60

60:                                               ; preds = %56
  %61 = icmp eq i32 %45, 0
  br i1 %61, label %62, label %70

62:                                               ; preds = %60
  %63 = icmp eq i32 %43, 0
  %64 = select i1 %63, i1 %57, i1 false
  br i1 %64, label %75, label %65

65:                                               ; preds = %62
  br i1 %63, label %66, label %68

66:                                               ; preds = %65
  %67 = add nsw i32 %44, 1
  br label %75

68:                                               ; preds = %65
  %69 = add nsw i32 %43, -1
  br label %75

70:                                               ; preds = %60
  br i1 %57, label %71, label %73

71:                                               ; preds = %70
  %72 = add nsw i32 %44, 1
  br label %75

73:                                               ; preds = %70
  %74 = add nsw i32 %43, -1
  br label %75

75:                                               ; preds = %62, %71, %73, %68, %66
  %76 = phi i32 [ %67, %66 ], [ %69, %68 ], [ %39, %71 ], [ %74, %73 ], [ %39, %62 ]
  %77 = phi i32 [ %67, %66 ], [ %44, %68 ], [ %72, %71 ], [ %44, %73 ], [ %38, %62 ]
  %78 = phi i32 [ 0, %66 ], [ 0, %68 ], [ 1, %71 ], [ 1, %73 ], [ 1, %62 ]
  %79 = sub nsw i32 %77, %76
  %80 = load i32, i32* %2, align 4, !tbaa !5
  %81 = load i32, i32* %3, align 4
  br label %40

82:                                               ; preds = %56
  call void @llvm.lifetime.end.p0i8(i64 4, i8* nonnull %6) #3
  call void @llvm.lifetime.end.p0i8(i64 4, i8* nonnull %5) #3
  call void @llvm.lifetime.end.p0i8(i64 40000, i8* nonnull %4) #3
  ret void
}

; Function Attrs: argmemonly mustprogress nofree nosync nounwind willreturn
declare void @llvm.lifetime.start.p0i8(i64 immarg, i8* nocapture) #1

; Function Attrs: nofree nounwind
declare noundef i32 @__isoc99_scanf(i8* nocapture noundef readonly, ...) local_unnamed_addr #2

; Function Attrs: nofree nounwind
declare noundef i32 @printf(i8* nocapture noundef readonly, ...) local_unnamed_addr #2

; Function Attrs: argmemonly mustprogress nofree nosync nounwind willreturn
declare void @llvm.lifetime.end.p0i8(i64 immarg, i8* nocapture) #1


!llvm.module.flags = !{!0, !1, !2, !3}
!llvm.ident = !{!4}

!0 = !{i32 1, !"wchar_size", i32 4}
!1 = !{i32 7, !"PIC Level", i32 2}
!2 = !{i32 7, !"PIE Level", i32 2}
!3 = !{i32 7, !"uwtable", i32 1}
!4 = !{!"clang version 13.0.0"}
!5 = !{!6, !6, i64 0}
!6 = !{!"int", !7, i64 0}
!7 = !{!"omnipotent char", !8, i64 0}
!8 = !{!"Simple C/C++ TBAA"}
!9 = distinct !{!9, !10}
!10 = !{!"llvm.loop.mustprogress"}
!11 = distinct !{!11, !10, !12}
!12 = !{!"llvm.loop.unswitch.partial.disable"}
